(lp1
(dp2
S'-c->to'
p3
F0.061756700000000005
sS'-v->to'
p4
F0.084160499999999999
sS'-v->create'
p5
F0.080000000000000002
sS'tar->file'
p6
F0.029999999999999999
sS'tar->tar'
p7
F0.19094400000000003
sS'-f->file'
p8
F0.053323500000000003
sS'*->to'
p9
F0.099999999999999992
sS'-c->file'
p10
F0.060986900000000004
sS'-c->tar'
p11
F0.13296139999999998
sS'-v->tar'
p12
F0.080000000000000002
sS'tar->create'
p13
F0.029999999999999999
sS'-f->to'
p14
F0.049522900000000009
sS'-f->create'
p15
F0.040000000000000001
sS'*->tar'
p16
F0.099999999999999992
sS'*->file'
p17
F0.099999999999999992
sS'*->create'
p18
F0.099999999999999992
sS'-v->file'
p19
F0.080740199999999998
sS'tar->to'
p20
F0.029999999999999999
sS'-f->tar'
p21
F0.16446300000000003
sS'-c->create'
p22
F0.060000000000000005
sa(dp23
g3
I0
sg4
I1
sg5
I2
sg6
I3
sg7
I4
sg8
I5
sg9
I6
sg10
I7
sg11
I8
sg12
I9
sg13
I10
sg14
I11
sg15
I12
sg16
I13
sg17
I14
sg18
I15
sg19
I16
sg20
I17
sg21
I18
sg22
I19
saS'{}->{}'
p24
aS'{}:::{}'
p25
aF0
aF-1.0000000000000001e-05
a.